target datalayout = "e-m:e-p270:32:32-p271:32:32-p272:64:64-i64:64-i128:128-f80:128-n8:16:32:64-S128"
target triple = "x86_64-pc-linux-gnu"

; Function Attrs: inlinehint nounwind sspstrong uwtable
define internal ptr @ossl_check_X509_freefunc_type(ptr noundef %0) #6 {
  %2 = alloca ptr, align 8
  store ptr %0, ptr %2, align 8, !tbaa !41
  %3 = load ptr, ptr %2, align 8, !tbaa !41
  ret ptr %3
}

; Function Attrs: inlinehint nounwind sspstrong uwtable
define internal ptr @ossl_check_X509_sk_type(ptr noundef %0) #6 {
  %2 = alloca ptr, align 8
  store ptr %0, ptr %2, align 8, !tbaa !39
  %3 = load ptr, ptr %2, align 8, !tbaa !39
  ret ptr %3
}

; Function Attrs: nounwind sspstrong uwtable
define internal void @ossl_x509stctx_free(ptr noundef %0) #0 {
  %2 = alloca ptr, align 8
  %3 = alloca ptr, align 8
  store ptr %0, ptr %2, align 8, !tbaa !41
  call void @llvm.lifetime.start.p0(i64 8, ptr %3) #12
  %4 = load ptr, ptr %2, align 8, !tbaa !41
  store ptr %4, ptr %3, align 8, !tbaa !12
  %5 = load ptr, ptr %3, align 8, !tbaa !12
  %6 = call ptr @X509_STORE_CTX_get0_untrusted(ptr noundef %5)
  %7 = icmp ne ptr %6, null
  br i1 %7, label %8, label %13

8:                                                ; preds = %1
  %9 = load ptr, ptr %3, align 8, !tbaa !12
  %10 = call ptr @X509_STORE_CTX_get0_untrusted(ptr noundef %9)
  %11 = call ptr @ossl_check_X509_sk_type(ptr noundef %10)
  %12 = call ptr @ossl_check_X509_freefunc_type(ptr noundef @X509_free)
  call void @OPENSSL_sk_pop_free(ptr noundef %11, ptr noundef %12)
  br label %13

13:                                               ; preds = %8, %1
  %14 = load ptr, ptr %3, align 8, !tbaa !12
  %15 = call ptr @X509_STORE_CTX_get0_cert(ptr noundef %14)
  %16 = icmp ne ptr %15, null
  br i1 %16, label %17, label %20

17:                                               ; preds = %13
  %18 = load ptr, ptr %3, align 8, !tbaa !12
  %19 = call ptr @X509_STORE_CTX_get0_cert(ptr noundef %18)
  call void @X509_free(ptr noundef %19)
  br label %20

20:                                               ; preds = %17, %13
  %21 = load ptr, ptr %3, align 8, !tbaa !12
  call void @X509_STORE_CTX_free(ptr noundef %21)
  call void @llvm.lifetime.end.p0(i64 8, ptr %3) #12
  ret void
}