; Function Attrs: nounwind sspstrong uwtable
define internal void @ossl_x509stctx_free(ptr noundef %0) #0 {
  %2 = tail call ptr @X509_STORE_CTX_get0_untrusted(ptr noundef %0) #5
  %.not = icmp eq ptr %2, null
  br i1 %.not, label %5, label %3

3:                                                ; preds = %1
  %4 = tail call ptr @X509_STORE_CTX_get0_untrusted(ptr noundef %0) #5
  tail call void @OPENSSL_sk_pop_free(ptr noundef %4, ptr noundef nonnull @X509_free) #5
  br label %5

5:                                                ; preds = %3, %1
  %6 = tail call ptr @X509_STORE_CTX_get0_cert(ptr noundef %0) #5
  %.not6 = icmp eq ptr %6, null
  br i1 %.not6, label %9, label %7

7:                                                ; preds = %5
  %8 = tail call ptr @X509_STORE_CTX_get0_cert(ptr noundef %0) #5
  tail call void @X509_free(ptr noundef %8) #5
  br label %9

9:                                                ; preds = %7, %5
  tail call void @X509_STORE_CTX_free(ptr noundef %0) #5
  ret void
}